ccopy_reg
_reconstructor
p1
(ccertfuzz.campaign.campaign
WindowsCampaign
p2
c__builtin__
object
p3
NtRp4
(dp5
S'seed_interval'
p6
I1
sS'fuzzer_module_name'
p7
S'certfuzz.fuzzers.bytemut'
p8
sS'status_interval'
p9
I100
sS'cmd_template'
p10
S'"C:\\Temp\\notepad.exe" "$SEEDFILE"'
p11
sS'seed_dir_local'
p12
S'C:\\diagnose_vulnerabilities\\FOE2\\notepad\\working_dir\\campaign_alww2g\\seedfiles'
p13
sS'id'
p14
S'notepad'
p15
sS'runner_module_name'
p16
NsS'current_seed'
p17
I300
sS'outdir_base'
p18
S'C:\\diagnose_vulnerabilities\\FOE2\\notepad\\results'
p19
sS'working_dir'
p20
S'C:\\diagnose_vulnerabilities\\FOE2\\notepad\\working_dir\\campaign_alww2g'
p21
sS'configdate'
p22
F1482000294.2373316
sS'prog'
p23
S'C:\\Temp\\notepad.exe'
p24
sS'config'
p25
(dp26
S'target'
p27
(dp28
S'program'
p29
g24
sS'cmdline_template'
p30
g11
ssS'campaign'
p31
(dp32
S'keep_heisenbugs'
p33
I00
sS'use_buttonclicker'
p34
I00
sS'id'
p35
g15
ssS'runner'
p36
(dp37
S'runner'
p38
S'winrun'
p39
sS'exceptions'
p40
(lp41
L2147483650L
aL3221225477L
aL3221225501L
aL3221225509L
aL3221225510L
aL3221225612L
aL3221225614L
aL3221225616L
aL3221225617L
aL3221225618L
aL3221225619L
aL3221225620L
aL3221225621L
aL3221225622L
aL3221225725L
asS'runtimeout'
p42
I5
sS'hideoutput'
p43
I00
sS'watchcpu'
p44
I01
ssS'directories'
p45
(dp46
S'working_dir'
p47
S'C:\\diagnose_vulnerabilities\\FOE2\\notepad\\working_dir'
p48
sS'seedfile_dir'
p49
S'C:\\diagnose_vulnerabilities\\FOE2\\notepad\\seedfiles'
p50
sS'results_dir'
p51
S'C:\\diagnose_vulnerabilities\\FOE2\\notepad\\results'
p52
ssS'runoptions'
p53
(dp54
S'last_iteration'
p55
I0
sS'minimizer_timeout'
p56
I3600
sS'seed_interval'
p57
I0
sS'minimize'
p58
I01
sS'first_iteration'
p59
I0
sS'recycle_crashers'
p60
I00
sS'keep_unique_faddr'
p61
I00
sS'keep_all_duplicates'
p62
I00
ssS'fuzzer'
p63
(dp64
S'fuzzer'
p65
S'bytemut'
p66
sS'fuzz_zip_container'
p67
I00
ssS'debugger'
p68
(dp69
S'max_handled_exceptions'
p70
I6
sS'runtimeout'
p71
I10
sS'debugheap'
p72
I00
sS'watchcpu'
p73
I01
sS'debugger'
p74
S'msec'
p75
sssS'work_dir_base'
p76
S'C:\\diagnose_vulnerabilities\\FOE2\\notepad\\working_dir'
p77
sS'stop_seed'
p78
I0
sS'debugger_module_name'
p79
S'certfuzz.debuggers.msec'
p80
sS'keep_heisenbugs'
p81
I00
sS'crashes_seen'
p82
(lp83
S'0x42680853.0x78a87885'
p84
asS'outdir'
p85
S'C:\\diagnose_vulnerabilities\\FOE2\\notepad\\results\\notepad'
p86
sS'use_buttonclicker'
p87
I00
sS'should_keep_u_faddr'
p88
I00
sS'seedfile_set'
p89
(dp90
S'originpath'
p91
g50
sS'datafile'
p92
S'C:\\diagnose_vulnerabilities\\FOE2\\notepad\\results\\notepad\\seedfiles\\seedfile_set_data.csv'
p93
sS'sfcount'
p94
I2
sS'seedfile_output_base_dir'
p95
S'C:\\diagnose_vulnerabilities\\FOE2\\notepad\\results\\notepad\\seedfiles'
p96
sS'expected_crash_density'
p97
F0.0099168771043771035
sS'things'
p98
(dp99
S'677271d56999ae96a9fe55fdf4a2a202'
p100
(dp101
S'probability'
p102
F0.0078125
sS'range_min'
p103
F7.6103500761035014e-05
sS'range_max'
p104
F0.99992389649923896
sS'basename'
p105
S'sf_677271d56999ae96a9fe55fdf4a2a202.txt'
p106
sS'len'
p107
I13140
sS'tries'
p108
I126
sS'rangefinder'
p109
(dp110
g92
NsS'min'
p111
F7.6103500761035014e-05
sg98
(dp112
S'0.000322-0.000522'
p113
(dp114
S'a'
I1
sS'b'
I9
sS'span'
p115
F0.0001992415516552432
sg102
F0.10000000000000001
sg111
F0.00032237960254945139
sS'successes'
p116
I0
sS'max'
p117
F0.00052162115420469459
sS'uniques_only'
p118
I01
sg108
I8
sS'key'
p119
S'scorable_thing_ESLjGCbS'
p120
sS'seen'
p121
(dp122
sS'mean'
p123
F0.00042200037837707301
ssS'0.000076-0.000123'
p124
(dp125
S'a'
I1
sS'b'
I9
sg115
F4.7034550133173144e-05
sg102
F0.10000000000000001
sg111
F7.6103500761035014e-05
sg116
I0
sg117
F0.00012313805089420816
sg118
I01
sg108
I8
sg119
S'scorable_thing_VoqITWMc'
p126
sg121
(dp127
sg123
F9.9620775827621586e-05
ssS'0.000123-0.000199'
p128
(dp129
S'a'
I1
sS'b'
I5
sg115
F7.6103500761035041e-05
sg102
F0.16666666666666666
sg111
F0.00012313805089420816
sg116
I0
sg117
F0.0001992415516552432
sg118
I01
sg108
I4
sg119
S'scorable_thing_TehjMTnl'
p130
sg121
(dp131
sg123
F0.00016118980127472567
ssS'0.001366-0.002210'
p132
(dp133
S'a'
I1
sS'b'
I6
sg115
F0.00084400075675414624
sg102
F0.14285714285714285
sg111
F0.0013656219109588407
sg116
I0
sg117
F0.002209622667712987
sg118
I01
sg108
I5
sg119
S'scorable_thing_LaGPlxVZ'
p134
sg121
(dp135
sg123
F0.0017876222893359137
ssS'0.002210-0.003575'
p136
(dp137
S'a'
I1
sS'b'
I8
sg115
F0.0013656219109588409
sg102
F0.1111111111111111
sg111
F0.002209622667712987
sg116
I0
sg117
F0.0035752445786718279
sg118
I01
sg108
I7
sg119
S'scorable_thing_sHbYlNcw'
p138
sg121
(dp139
sg123
F0.0028924336231924072
ssS'0.000199-0.000322'
p140
(dp141
S'a'
I1
sS'b'
I9
sg115
F0.00012313805089420819
sg102
F0.10000000000000001
sg111
F0.0001992415516552432
sg116
I0
sg117
F0.00032237960254945139
sg118
I01
sg108
I8
sg119
S'scorable_thing_bMTgZJVJ'
p142
sg121
(dp143
sg123
F0.00026081057710234729
ssS'0.271766-0.439726'
p144
(dp145
S'a'
I1
sS'b'
I7
sg115
F0.16796039169681493
sg102
F0.125
sg111
F0.27176562252919217
sg116
I0
sg117
F0.4397260142260071
sg118
I01
sg108
I6
sg119
S'scorable_thing_bhdiHHjx'
p146
sg121
(dp147
sg123
F0.35574581837759967
ssS'0.005785-0.009360'
p148
(dp149
S'a'
I1
sS'b'
I9
sg115
F0.0035752445786718283
sg102
F0.10000000000000001
sg111
F0.0057848672463848153
sg116
I0
sg117
F0.0093601118250566436
sg118
I01
sg108
I8
sg119
S'scorable_thing_RdyqtrSC'
p150
sg121
(dp151
sg123
F0.0075724895357207299
ssS'0.064155-0.103805'
p152
(dp153
S'a'
I1
sS'b'
I6
sg115
F0.039650069967939572
sg102
F0.14285714285714285
sg111
F0.064155160864437677
sg116
I0
sg117
F0.10380523083237725
sg118
I01
sg108
I5
sg119
S'scorable_thing_dJLoRohd'
p154
sg121
(dp155
sg123
F0.083980195848407463
ssS'0.103805-0.167960'
p156
(dp157
S'a'
I1
sS'b'
I6
sg115
F0.064155160864437677
sg102
F0.14285714285714285
sg111
F0.10380523083237725
sg116
I0
sg117
F0.16796039169681493
sg118
I01
sg108
I5
sg119
S'scorable_thing_cIxfZqIU'
p158
sg121
(dp159
sg123
F0.13588281126459609
ssS'0.000522-0.000844'
p160
(dp161
S'a'
I1
sS'b'
I9
sg115
F0.00032237960254945144
sg102
F0.10000000000000001
sg111
F0.00052162115420469459
sg116
I0
sg117
F0.00084400075675414602
sg118
I01
sg108
I8
sg119
S'scorable_thing_KnAMFSVy'
p162
sg121
(dp163
sg123
F0.00068281095547942025
ssS'0.039650-0.064155'
p164
(dp165
S'a'
I1
sS'b'
I8
sg115
F0.024505090896498112
sg102
F0.1111111111111111
sg111
F0.039650069967939565
sg116
I0
sg117
F0.064155160864437677
sg118
I01
sg108
I7
sg119
S'scorable_thing_bIWUOZUQ'
p166
sg121
(dp167
sg123
F0.051902615416188624
ssS'0.009360-0.015145'
p168
(dp169
S'a'
I1
sS'b'
I5
sg115
F0.0057848672463848162
sg102
F0.16666666666666666
sg111
F0.0093601118250566436
sg116
I0
sg117
F0.01514497907144146
sg118
I01
sg108
I4
sg119
S'scorable_thing_BaabLSnI'
p170
sg121
(dp171
sg123
F0.012252545448249053
ssS'0.711492-0.999924'
p172
(dp173
S'a'
I1
sS'b'
I8
sg115
F0.28843225974403963
sg102
F0.1111111111111111
sg111
F0.71149163675519933
sg116
I0
sg117
F0.99992389649923896
sg118
I01
sg108
I7
sg119
S'scorable_thing_oEkUobOI'
p174
sg121
(dp175
sg123
F0.85570776662721915
ssS'0.000844-0.001366'
p176
(dp177
S'a'
I1
sS'b'
I9
sg115
F0.00052162115420469469
sg102
F0.10000000000000001
sg111
F0.00084400075675414602
sg116
I0
sg117
F0.0013656219109588407
sg118
I01
sg108
I8
sg119
S'scorable_thing_zNVdNCeY'
p178
sg121
(dp179
sg123
F0.0011048113338564935
ssS'0.003575-0.005785'
p180
(dp181
S'a'
I1
sS'b'
I6
sg115
F0.0022096226677129874
sg102
F0.14285714285714285
sg111
F0.0035752445786718279
sg116
I0
sg117
F0.0057848672463848153
sg118
I01
sg108
I5
sg119
S'scorable_thing_aqgixNUv'
p182
sg121
(dp183
sg123
F0.0046800559125283218
ssS'0.024505-0.039650'
p184
(dp185
S'a'
I1
sS'b'
I9
sg115
F0.01514497907144146
sg102
F0.10000000000000001
sg111
F0.024505090896498105
sg116
I0
sg117
F0.039650069967939565
sg118
I01
sg108
I8
sg119
S'scorable_thing_GDITJhDV'
p186
sg121
(dp187
sg123
F0.032077580432218838
ssS'0.167960-0.271766'
p188
(dp189
S'a'
I1
sS'b'
I6
sg115
F0.10380523083237725
sg102
F0.14285714285714285
sg111
F0.16796039169681493
sg116
I0
sg117
F0.27176562252919217
sg118
I01
sg108
I5
sg119
S'scorable_thing_mMmiWPIU'
p190
sg121
(dp191
sg123
F0.21986300711300355
ssS'0.015145-0.024505'
p192
(dp193
S'a'
I1
sS'b'
I6
sg115
F0.0093601118250566454
sg102
F0.14285714285714285
sg111
F0.01514497907144146
sg116
I0
sg117
F0.024505090896498105
sg118
I01
sg108
I5
sg119
S'scorable_thing_GtSPUHQT'
p194
sg121
(dp195
sg123
F0.019825034983969782
ssS'0.439726-0.711492'
p196
(dp197
S'a'
I1
sS'b'
I6
sg115
F0.27176562252919223
sg102
F0.14285714285714285
sg111
F0.4397260142260071
sg116
I0
sg117
F0.71149163675519933
sg118
I01
sg108
I5
sg119
S'scorable_thing_AzdVKIOU'
p198
sg121
(dp199
sg123
F0.57560882549060322
sssg97
F0.12922458291492694
sS'abs_min'
p200
F9.9999999999999995e-07
sS'scaled_score'
p201
(dp202
g113
F0.039955604883462816
sg124
F0.044395116537180902
sg128
F0.066592674805771343
sg132
F0.057079435547804015
sg136
F0.044395116537180902
sg140
F0.039955604883462816
sg144
F0.049944506104328518
sg148
F0.039955604883462816
sg152
F0.057079435547804015
sg156
F0.057079435547804015
sg160
F0.039955604883462816
sg164
F0.044395116537180902
sg168
F0.066592674805771343
sg172
F0.044395116537180902
sg176
F0.039955604883462816
sg180
F0.057079435547804015
sg184
F0.039955604883462816
sg188
F0.057079435547804015
sg192
F0.057079435547804015
sg196
F0.057079435547804015
ssg117
F0.99992389649923896
sS'logfile'
p203
S'C:\\diagnose_vulnerabilities\\FOE2\\notepad\\results\\notepad\\seedfiles\\677271d56999ae96a9fe55fdf4a2a202\\rangefinder.log'
p204
ssg119
g100
sS'path'
p205
S'C:\\diagnose_vulnerabilities\\FOE2\\notepad\\working_dir\\campaign_h32ymn\\seedfiles\\sf_677271d56999ae96a9fe55fdf4a2a202.txt'
p206
sS'bitlen'
p207
I105120
sg121
(dp208
sS'is_zip'
p209
I00
sS'dirname'
p210
S'C:\\diagnose_vulnerabilities\\FOE2\\notepad\\working_dir\\campaign_h32ymn\\seedfiles'
p211
sS'md5'
p212
g100
sS'a'
I1
sS'b'
I127
sg116
I0
sg118
I01
sS'ext'
p213
S'.txt'
p214
sS'output_dir'
p215
S'C:\\diagnose_vulnerabilities\\FOE2\\notepad\\results\\notepad\\seedfiles\\677271d56999ae96a9fe55fdf4a2a202'
p216
sS'root'
p217
S'sf_677271d56999ae96a9fe55fdf4a2a202'
p218
ssS'd32dfc6844d1243eacc5e05de6877078'
p219
(dp220
g102
F0.011363636363636364
sg103
F0.00058582308142940832
sg104
F0.9994141769185706
sg105
S'sf_d32dfc6844d1243eacc5e05de6877078.txt'
p221
sg107
I1707
sg108
I174
sg109
(dp222
g92
Nsg111
F0.00058582308142940832
sg98
(dp223
S'0.001534-0.002482'
p224
(dp225
S'a'
I1
sS'b'
I15
sg115
F0.00094788165714697987
sg102
F0.0625
sg111
F0.0015337047385763883
sg116
I0
sg117
F0.0024815863957233682
sg118
I01
sg108
I14
sg119
S'scorable_thing_TMeyGfaZ'
p226
sg121
(dp227
sg123
F0.002007645567149878
ssS'0.006497-0.010512'
p228
(dp229
S'a'
I1
sS'b'
I10
sg115
F0.0040152911342997578
sg102
F0.090909090909090912
sg111
F0.0064968775300231259
sg116
I0
sg117
F0.010512168664322884
sg118
I01
sg108
I9
sg119
S'scorable_thing_eMeayPIz'
p230
sg121
(dp231
sg123
F0.0085045230971730057
ssS'0.188633-0.305215'
p232
(dp233
S'a'
I1
sS'b'
I14
sg115
F0.11658173696469873
sg102
F0.066666666666666666
sg111
F0.18863321287638254
sg116
I0
sg117
F0.30521494984108127
sg118
I01
sg108
I13
sg119
S'scorable_thing_hxXSdKBa'
p234
sg121
(dp235
sg123
F0.2469240813587319
ssS'0.017009-0.027521'
p236
(dp237
S'a'
I1
sS'b'
I13
sg115
F0.010512168664322887
sg102
F0.071428571428571425
sg111
F0.017009046194346011
sg116
I0
sg117
F0.027521214858668899
sg118
I01
sg108
I12
sg119
S'scorable_thing_FcGLgQhE'
p238
sg121
(dp239
sg123
F0.022265130526507457
ssS'0.027521-0.044530'
p240
(dp241
S'a'
I1
sS'b'
I12
sg115
F0.017009046194346015
sg102
F0.076923076923076927
sg111
F0.027521214858668899
sg116
I0
sg117
F0.044530261053014913
sg118
I01
sg108
I11
sg119
S'scorable_thing_GVuugeoU'
p242
sg121
(dp243
sg123
F0.036025737955841908
ssS'0.000948-0.001534'
p244
(dp245
S'a'
I2
sS'b'
I18
sg115
F0.00058582308142940832
sg102
F0.10000000000000001
sg111
F0.00094788165714697998
sg116
I1
sg117
F0.0015337047385763883
sg118
I01
sg108
I18
sg119
S'scorable_thing_AqOwSbBW'
p246
sg121
(dp247
g84
I1
ssg123
F0.0012407931978616841
ssS'0.116582-0.188633'
p248
(dp249
S'a'
I1
sS'b'
I12
sg115
F0.072051475911683815
sg102
F0.076923076923076927
sg111
F0.11658173696469873
sg116
I0
sg117
F0.18863321287638254
sg118
I01
sg108
I11
sg119
S'scorable_thing_HOWQrLbj'
p250
sg121
(dp251
sg123
F0.15260747492054064
ssS'0.002482-0.004015'
p252
(dp253
S'a'
I1
sS'b'
I10
sg115
F0.0015337047385763887
sg102
F0.090909090909090912
sg111
F0.0024815863957233682
sg116
I0
sg117
F0.0040152911342997569
sg118
I01
sg108
I9
sg119
S'scorable_thing_WRJdltBe'
p254
sg121
(dp255
sg123
F0.0032484387650115625
ssS'0.000586-0.000948'
p256
(dp257
S'a'
I1
sS'b'
I10
sg115
F0.00036205857571757166
sg102
F0.090909090909090912
sg111
F0.00058582308142940832
sg116
I0
sg117
F0.00094788165714697998
sg118
I01
sg108
I9
sg119
S'scorable_thing_QkgwReqc'
p258
sg121
(dp259
sg123
F0.00076685236928819415
ssS'0.305215-0.493848'
p260
(dp261
S'a'
I1
sS'b'
I13
sg115
F0.18863321287638257
sg102
F0.071428571428571425
sg111
F0.30521494984108127
sg116
I0
sg117
F0.49384816271746385
sg118
I01
sg108
I12
sg119
S'scorable_thing_XCUgdlBP'
p262
sg121
(dp263
sg123
F0.39953155627927256
ssS'0.004015-0.006497'
p264
(dp265
S'a'
I1
sS'b'
I10
sg115
F0.002481586395723369
sg102
F0.090909090909090912
sg111
F0.0040152911342997569
sg116
I0
sg117
F0.0064968775300231259
sg118
I01
sg108
I9
sg119
S'scorable_thing_QKsHgaSB'
p266
sg121
(dp267
sg123
F0.0052560843321614419
ssS'0.072051-0.116582'
p268
(dp269
S'a'
I1
sS'b'
I11
sg115
F0.044530261053014913
sg102
F0.083333333333333329
sg111
F0.072051475911683815
sg116
I0
sg117
F0.11658173696469873
sg118
I01
sg108
I10
sg119
S'scorable_thing_WjqrKnVA'
p270
sg121
(dp271
sg123
F0.094316606438191272
ssS'0.493848-0.999414'
p272
(dp273
S'a'
I1
sS'b'
I11
sg115
F0.50556601420110669
sg102
F0.083333333333333329
sg111
F0.49384816271746385
sg116
I0
sg117
F0.9994141769185706
sg118
I01
sg108
I10
sg119
S'scorable_thing_eXVfzJyQ'
p274
sg121
(dp275
sg123
F0.74663116981801725
ssS'0.010512-0.017009'
p276
(dp277
S'a'
I1
sS'b'
I16
sg115
F0.0064968775300231277
sg102
F0.058823529411764705
sg111
F0.010512168664322884
sg116
I0
sg117
F0.017009046194346011
sg118
I01
sg108
I15
sg119
S'scorable_thing_wdCUuuRZ'
p278
sg121
(dp279
sg123
F0.013760607429334448
ssS'0.044530-0.072051'
p280
(dp281
S'a'
I1
sS'b'
I13
sg115
F0.027521214858668902
sg102
F0.071428571428571425
sg111
F0.044530261053014913
sg116
I0
sg117
F0.072051475911683815
sg118
I01
sg108
I12
sg119
S'scorable_thing_zKWutSDb'
p282
sg121
(dp283
sg123
F0.058290868482349364
sssg97
F0.081422138314592704
sg200
F9.9999999999999995e-07
sg201
(dp284
g224
F0.052345021270836345
sg240
F0.064424641564106266
sg232
F0.055834689355558763
sg236
F0.059822881452384388
sg228
F0.076138212757580134
sg244
F0.083752034033338155
sg260
F0.059822881452384388
sg252
F0.076138212757580134
sg256
F0.076138212757580134
sg248
F0.064424641564106266
sg264
F0.076138212757580134
sg268
F0.076138212757580134
sg272
F0.069793361694448455
sg276
F0.049265902372551851
sg280
F0.059822881452384388
ssg117
F0.9994141769185706
sg203
S'C:\\diagnose_vulnerabilities\\FOE2\\notepad\\results\\notepad\\seedfiles\\d32dfc6844d1243eacc5e05de6877078\\rangefinder.log'
p285
ssg119
g219
sg205
S'C:\\diagnose_vulnerabilities\\FOE2\\notepad\\working_dir\\campaign_h32ymn\\seedfiles\\sf_d32dfc6844d1243eacc5e05de6877078.txt'
p286
sg207
I13656
sg121
(dp287
g84
I1
ssg209
I00
sg210
S'C:\\diagnose_vulnerabilities\\FOE2\\notepad\\working_dir\\campaign_h32ymn\\seedfiles'
p288
sg212
g219
sS'a'
I2
sS'b'
I174
sg116
I1
sg118
I01
sg213
S'.txt'
p289
sg215
S'C:\\diagnose_vulnerabilities\\FOE2\\notepad\\results\\notepad\\seedfiles\\d32dfc6844d1243eacc5e05de6877078'
p290
sg217
S'sf_d32dfc6844d1243eacc5e05de6877078'
p291
sssS'campaign_id'
p292
g15
sS'localpath'
p293
S'C:\\diagnose_vulnerabilities\\FOE2\\notepad\\working_dir\\campaign_h32ymn\\seedfiles'
p294
sS'outputpath'
p295
g96
sS'sfdel'
p296
I0
sg201
(dp297
S'677271d56999ae96a9fe55fdf4a2a202'
p298
F0.40740740740740738
sS'd32dfc6844d1243eacc5e05de6877078'
p299
F0.59259259259259256
sssS'config_file'
p300
S'configs/foe.yaml'
p301
sS'_version'
p302
S'2.7'
p303
sS'seed_dir_in'
p304
g50
sS'cached_state_file'
p305
S'C:\\diagnose_vulnerabilities\\FOE2\\notepad\\working_dir\\campaign_notepad.pkl'
p306
sS'gui_app'
p307
I01
sS'keep_duplicates'
p308
I00
sS'debug'
p309
NsS'sf_set_out'
p310
g96
sb.