ccopy_reg
_reconstructor
p1
(ccertfuzz.campaign.campaign
WindowsCampaign
p2
c__builtin__
object
p3
NtRp4
(dp5
S'seed_interval'
p6
I1
sS'fuzzer_module_name'
p7
S'certfuzz.fuzzers.bytemut'
p8
sS'status_interval'
p9
I100
sS'cmd_template'
p10
S'"C:\\Temp\\notepad.exe" "$SEEDFILE"'
p11
sS'seed_dir_local'
p12
S'C:\\diagnose_vulnerabilities\\FOE2\\notepad\\working_dir\\campaign_shtrwz\\seedfiles'
p13
sS'id'
p14
S'notepad_pp'
p15
sS'runner_module_name'
p16
NsS'current_seed'
p17
I0
sS'outdir_base'
p18
S'C:\\diagnose_vulnerabilities\\FOE2\\notepad\\results'
p19
sS'working_dir'
p20
S'C:\\diagnose_vulnerabilities\\FOE2\\notepad\\working_dir\\campaign_shtrwz'
p21
sS'configdate'
p22
F1482162033.4307339
sS'prog'
p23
S'C:\\Temp\\notepad.exe'
p24
sS'config'
p25
(dp26
S'target'
p27
(dp28
S'program'
p29
g24
sS'cmdline_template'
p30
g11
ssS'campaign'
p31
(dp32
S'keep_heisenbugs'
p33
I00
sS'use_buttonclicker'
p34
I00
sS'id'
p35
g15
ssS'runner'
p36
(dp37
S'runner'
p38
S'winrun'
p39
sS'exceptions'
p40
(lp41
L2147483650L
aL3221225477L
aL3221225501L
aL3221225509L
aL3221225510L
aL3221225612L
aL3221225614L
aL3221225616L
aL3221225617L
aL3221225618L
aL3221225619L
aL3221225620L
aL3221225621L
aL3221225622L
aL3221225725L
asS'runtimeout'
p42
I1
sS'hideoutput'
p43
I00
sS'watchcpu'
p44
I01
ssS'directories'
p45
(dp46
S'working_dir'
p47
S'C:\\diagnose_vulnerabilities\\FOE2\\notepad\\working_dir'
p48
sS'seedfile_dir'
p49
S'C:\\diagnose_vulnerabilities\\FOE2\\notepad\\seedfiles'
p50
sS'results_dir'
p51
S'C:\\diagnose_vulnerabilities\\FOE2\\notepad\\results'
p52
ssS'runoptions'
p53
(dp54
S'last_iteration'
p55
I100
sS'minimizer_timeout'
p56
I3600
sS'seed_interval'
p57
I1
sS'minimize'
p58
I01
sS'first_iteration'
p59
I0
sS'recycle_crashers'
p60
I00
sS'keep_unique_faddr'
p61
I00
sS'keep_all_duplicates'
p62
I01
ssS'fuzzer'
p63
(dp64
S'fuzzer'
p65
S'bytemut'
p66
sS'fuzz_zip_container'
p67
I00
ssS'debugger'
p68
(dp69
S'max_handled_exceptions'
p70
I6
sS'debugheap'
p71
I00
sS'runtimeout'
p72
I10
sS'debugger'
p73
S'msec'
p74
sS'watchcpu'
p75
I01
sssS'work_dir_base'
p76
S'C:\\diagnose_vulnerabilities\\FOE2\\notepad\\working_dir'
p77
sS'stop_seed'
p78
I100
sS'debugger_module_name'
p79
S'certfuzz.debuggers.msec'
p80
sS'keep_heisenbugs'
p81
I00
sS'crashes_seen'
p82
(lp83
sS'outdir'
p84
S'C:\\diagnose_vulnerabilities\\FOE2\\notepad\\results\\notepad_pp'
p85
sS'use_buttonclicker'
p86
I00
sS'should_keep_u_faddr'
p87
I00
sS'seedfile_set'
p88
(dp89
S'originpath'
p90
g50
sS'datafile'
p91
S'C:\\diagnose_vulnerabilities\\FOE2\\notepad\\results\\notepad_pp\\seedfiles\\seedfile_set_data.csv'
p92
sS'sfcount'
p93
I2
sS'seedfile_output_base_dir'
p94
S'C:\\diagnose_vulnerabilities\\FOE2\\notepad\\results\\notepad_pp\\seedfiles'
p95
sS'expected_crash_density'
p96
F0.5
sS'things'
p97
(dp98
S'677271d56999ae96a9fe55fdf4a2a202'
p99
(dp100
S'probability'
p101
F0.5
sS'range_min'
p102
F7.6103500761035014e-05
sS'range_max'
p103
F0.99992389649923896
sS'basename'
p104
S'sf_677271d56999ae96a9fe55fdf4a2a202.txt'
p105
sS'len'
p106
I13140
sS'tries'
p107
I0
sS'rangefinder'
p108
(dp109
g91
NsS'min'
p110
F7.6103500761035014e-05
sg97
(dp111
S'0.000322-0.000522'
p112
(dp113
S'a'
I1
sS'b'
I1
sS'span'
p114
F0.0001992415516552432
sg101
F0.5
sg110
F0.00032237960254945139
sS'successes'
p115
I0
sS'max'
p116
F0.00052162115420469459
sS'uniques_only'
p117
I01
sg107
I0
sS'key'
p118
S'scorable_thing_UuqAdbIP'
p119
sS'seen'
p120
(dp121
sS'mean'
p122
F0.00042200037837707301
ssS'0.000076-0.000123'
p123
(dp124
S'a'
I1
sS'b'
I1
sg114
F4.7034550133173144e-05
sg101
F0.5
sg110
F7.6103500761035014e-05
sg115
I0
sg116
F0.00012313805089420816
sg117
I01
sg107
I0
sg118
S'scorable_thing_BLgxhMuJ'
p125
sg120
(dp126
sg122
F9.9620775827621586e-05
ssS'0.000123-0.000199'
p127
(dp128
S'a'
I1
sS'b'
I1
sg114
F7.6103500761035041e-05
sg101
F0.5
sg110
F0.00012313805089420816
sg115
I0
sg116
F0.0001992415516552432
sg117
I01
sg107
I0
sg118
S'scorable_thing_AewONGbR'
p129
sg120
(dp130
sg122
F0.00016118980127472567
ssS'0.001366-0.002210'
p131
(dp132
S'a'
I1
sS'b'
I1
sg114
F0.00084400075675414624
sg101
F0.5
sg110
F0.0013656219109588407
sg115
I0
sg116
F0.002209622667712987
sg117
I01
sg107
I0
sg118
S'scorable_thing_qlQjUvTY'
p133
sg120
(dp134
sg122
F0.0017876222893359137
ssS'0.002210-0.003575'
p135
(dp136
S'a'
I1
sS'b'
I1
sg114
F0.0013656219109588409
sg101
F0.5
sg110
F0.002209622667712987
sg115
I0
sg116
F0.0035752445786718279
sg117
I01
sg107
I0
sg118
S'scorable_thing_nBcqNmjS'
p137
sg120
(dp138
sg122
F0.0028924336231924072
ssS'0.000199-0.000322'
p139
(dp140
S'a'
I1
sS'b'
I1
sg114
F0.00012313805089420819
sg101
F0.5
sg110
F0.0001992415516552432
sg115
I0
sg116
F0.00032237960254945139
sg117
I01
sg107
I0
sg118
S'scorable_thing_pXxfgRyL'
p141
sg120
(dp142
sg122
F0.00026081057710234729
ssS'0.271766-0.439726'
p143
(dp144
S'a'
I1
sS'b'
I1
sg114
F0.16796039169681493
sg101
F0.5
sg110
F0.27176562252919217
sg115
I0
sg116
F0.4397260142260071
sg117
I01
sg107
I0
sg118
S'scorable_thing_LrikXnQt'
p145
sg120
(dp146
sg122
F0.35574581837759967
ssS'0.005785-0.009360'
p147
(dp148
S'a'
I1
sS'b'
I1
sg114
F0.0035752445786718283
sg101
F0.5
sg110
F0.0057848672463848153
sg115
I0
sg116
F0.0093601118250566436
sg117
I01
sg107
I0
sg118
S'scorable_thing_qGWvZwdV'
p149
sg120
(dp150
sg122
F0.0075724895357207299
ssS'0.064155-0.103805'
p151
(dp152
S'a'
I1
sS'b'
I1
sg114
F0.039650069967939572
sg101
F0.5
sg110
F0.064155160864437677
sg115
I0
sg116
F0.10380523083237725
sg117
I01
sg107
I0
sg118
S'scorable_thing_mMqFTmpW'
p153
sg120
(dp154
sg122
F0.083980195848407463
ssS'0.103805-0.167960'
p155
(dp156
S'a'
I1
sS'b'
I1
sg114
F0.064155160864437677
sg101
F0.5
sg110
F0.10380523083237725
sg115
I0
sg116
F0.16796039169681493
sg117
I01
sg107
I0
sg118
S'scorable_thing_OQdSqzNK'
p157
sg120
(dp158
sg122
F0.13588281126459609
ssS'0.000522-0.000844'
p159
(dp160
S'a'
I1
sS'b'
I1
sg114
F0.00032237960254945144
sg101
F0.5
sg110
F0.00052162115420469459
sg115
I0
sg116
F0.00084400075675414602
sg117
I01
sg107
I0
sg118
S'scorable_thing_KBFpSato'
p161
sg120
(dp162
sg122
F0.00068281095547942025
ssS'0.039650-0.064155'
p163
(dp164
S'a'
I1
sS'b'
I1
sg114
F0.024505090896498112
sg101
F0.5
sg110
F0.039650069967939565
sg115
I0
sg116
F0.064155160864437677
sg117
I01
sg107
I0
sg118
S'scorable_thing_anLCgYyo'
p165
sg120
(dp166
sg122
F0.051902615416188624
ssS'0.009360-0.015145'
p167
(dp168
S'a'
I1
sS'b'
I1
sg114
F0.0057848672463848162
sg101
F0.5
sg110
F0.0093601118250566436
sg115
I0
sg116
F0.01514497907144146
sg117
I01
sg107
I0
sg118
S'scorable_thing_bjONzLVe'
p169
sg120
(dp170
sg122
F0.012252545448249053
ssS'0.711492-0.999924'
p171
(dp172
S'a'
I1
sS'b'
I1
sg114
F0.28843225974403963
sg101
F0.5
sg110
F0.71149163675519933
sg115
I0
sg116
F0.99992389649923896
sg117
I01
sg107
I0
sg118
S'scorable_thing_DtjqAUfi'
p173
sg120
(dp174
sg122
F0.85570776662721915
ssS'0.000844-0.001366'
p175
(dp176
S'a'
I1
sS'b'
I1
sg114
F0.00052162115420469469
sg101
F0.5
sg110
F0.00084400075675414602
sg115
I0
sg116
F0.0013656219109588407
sg117
I01
sg107
I0
sg118
S'scorable_thing_VQTxnQfv'
p177
sg120
(dp178
sg122
F0.0011048113338564935
ssS'0.003575-0.005785'
p179
(dp180
S'a'
I1
sS'b'
I1
sg114
F0.0022096226677129874
sg101
F0.5
sg110
F0.0035752445786718279
sg115
I0
sg116
F0.0057848672463848153
sg117
I01
sg107
I0
sg118
S'scorable_thing_fGDmLCJC'
p181
sg120
(dp182
sg122
F0.0046800559125283218
ssS'0.024505-0.039650'
p183
(dp184
S'a'
I1
sS'b'
I1
sg114
F0.01514497907144146
sg101
F0.5
sg110
F0.024505090896498105
sg115
I0
sg116
F0.039650069967939565
sg117
I01
sg107
I0
sg118
S'scorable_thing_YPyMzgLX'
p185
sg120
(dp186
sg122
F0.032077580432218838
ssS'0.167960-0.271766'
p187
(dp188
S'a'
I1
sS'b'
I1
sg114
F0.10380523083237725
sg101
F0.5
sg110
F0.16796039169681493
sg115
I0
sg116
F0.27176562252919217
sg117
I01
sg107
I0
sg118
S'scorable_thing_XQhUGxWV'
p189
sg120
(dp190
sg122
F0.21986300711300355
ssS'0.015145-0.024505'
p191
(dp192
S'a'
I1
sS'b'
I1
sg114
F0.0093601118250566454
sg101
F0.5
sg110
F0.01514497907144146
sg115
I0
sg116
F0.024505090896498105
sg117
I01
sg107
I0
sg118
S'scorable_thing_MjWxYHzm'
p193
sg120
(dp194
sg122
F0.019825034983969782
ssS'0.439726-0.711492'
p195
(dp196
S'a'
I1
sS'b'
I1
sg114
F0.27176562252919223
sg101
F0.5
sg110
F0.4397260142260071
sg115
I0
sg116
F0.71149163675519933
sg117
I01
sg107
I0
sg118
S'scorable_thing_aqgGNIOP'
p197
sg120
(dp198
sg122
F0.57560882549060322
sssg96
NsS'abs_min'
p199
F9.9999999999999995e-07
sS'scaled_score'
p200
(dp201
sg116
F0.99992389649923896
sS'logfile'
p202
S'C:\\diagnose_vulnerabilities\\FOE2\\notepad\\results\\notepad_pp\\seedfiles\\677271d56999ae96a9fe55fdf4a2a202\\rangefinder.log'
p203
ssg118
g99
sS'path'
p204
S'C:\\diagnose_vulnerabilities\\FOE2\\notepad\\working_dir\\campaign_xiqetq\\seedfiles\\sf_677271d56999ae96a9fe55fdf4a2a202.txt'
p205
sS'bitlen'
p206
I105120
sg120
(dp207
sS'is_zip'
p208
I00
sS'dirname'
p209
S'C:\\diagnose_vulnerabilities\\FOE2\\notepad\\working_dir\\campaign_xiqetq\\seedfiles'
p210
sS'md5'
p211
g99
sS'a'
I1
sS'b'
I1
sg115
I0
sg117
I01
sS'ext'
p212
S'.txt'
p213
sS'output_dir'
p214
S'C:\\diagnose_vulnerabilities\\FOE2\\notepad\\results\\notepad_pp\\seedfiles\\677271d56999ae96a9fe55fdf4a2a202'
p215
sS'root'
p216
S'sf_677271d56999ae96a9fe55fdf4a2a202'
p217
ssS'd32dfc6844d1243eacc5e05de6877078'
p218
(dp219
g101
F0.5
sg102
F0.00058582308142940832
sg103
F0.9994141769185706
sg104
S'sf_d32dfc6844d1243eacc5e05de6877078.txt'
p220
sg106
I1707
sg107
I0
sg108
(dp221
g91
Nsg110
F0.00058582308142940832
sg97
(dp222
S'0.001534-0.002482'
p223
(dp224
S'a'
I1
sS'b'
I1
sg114
F0.00094788165714697987
sg101
F0.5
sg110
F0.0015337047385763883
sg115
I0
sg116
F0.0024815863957233682
sg117
I01
sg107
I0
sg118
S'scorable_thing_erzsbjjt'
p225
sg120
(dp226
sg122
F0.002007645567149878
ssS'0.006497-0.010512'
p227
(dp228
S'a'
I1
sS'b'
I1
sg114
F0.0040152911342997578
sg101
F0.5
sg110
F0.0064968775300231259
sg115
I0
sg116
F0.010512168664322884
sg117
I01
sg107
I0
sg118
S'scorable_thing_WVnDAfAe'
p229
sg120
(dp230
sg122
F0.0085045230971730057
ssS'0.188633-0.305215'
p231
(dp232
S'a'
I1
sS'b'
I1
sg114
F0.11658173696469873
sg101
F0.5
sg110
F0.18863321287638254
sg115
I0
sg116
F0.30521494984108127
sg117
I01
sg107
I0
sg118
S'scorable_thing_aizKGNJD'
p233
sg120
(dp234
sg122
F0.2469240813587319
ssS'0.017009-0.027521'
p235
(dp236
S'a'
I1
sS'b'
I1
sg114
F0.010512168664322887
sg101
F0.5
sg110
F0.017009046194346011
sg115
I0
sg116
F0.027521214858668899
sg117
I01
sg107
I0
sg118
S'scorable_thing_capAnGts'
p237
sg120
(dp238
sg122
F0.022265130526507457
ssS'0.027521-0.044530'
p239
(dp240
S'a'
I1
sS'b'
I1
sg114
F0.017009046194346015
sg101
F0.5
sg110
F0.027521214858668899
sg115
I0
sg116
F0.044530261053014913
sg117
I01
sg107
I0
sg118
S'scorable_thing_LLsJSujN'
p241
sg120
(dp242
sg122
F0.036025737955841908
ssS'0.000948-0.001534'
p243
(dp244
S'a'
I1
sS'b'
I1
sg114
F0.00058582308142940832
sg101
F0.5
sg110
F0.00094788165714697998
sg115
I0
sg116
F0.0015337047385763883
sg117
I01
sg107
I0
sg118
S'scorable_thing_kXymLCrv'
p245
sg120
(dp246
sg122
F0.0012407931978616841
ssS'0.116582-0.188633'
p247
(dp248
S'a'
I1
sS'b'
I1
sg114
F0.072051475911683815
sg101
F0.5
sg110
F0.11658173696469873
sg115
I0
sg116
F0.18863321287638254
sg117
I01
sg107
I0
sg118
S'scorable_thing_SWSuZRdP'
p249
sg120
(dp250
sg122
F0.15260747492054064
ssS'0.002482-0.004015'
p251
(dp252
S'a'
I1
sS'b'
I1
sg114
F0.0015337047385763887
sg101
F0.5
sg110
F0.0024815863957233682
sg115
I0
sg116
F0.0040152911342997569
sg117
I01
sg107
I0
sg118
S'scorable_thing_bjuKPJMP'
p253
sg120
(dp254
sg122
F0.0032484387650115625
ssS'0.000586-0.000948'
p255
(dp256
S'a'
I1
sS'b'
I1
sg114
F0.00036205857571757166
sg101
F0.5
sg110
F0.00058582308142940832
sg115
I0
sg116
F0.00094788165714697998
sg117
I01
sg107
I0
sg118
S'scorable_thing_WmwzIbnf'
p257
sg120
(dp258
sg122
F0.00076685236928819415
ssS'0.305215-0.493848'
p259
(dp260
S'a'
I1
sS'b'
I1
sg114
F0.18863321287638257
sg101
F0.5
sg110
F0.30521494984108127
sg115
I0
sg116
F0.49384816271746385
sg117
I01
sg107
I0
sg118
S'scorable_thing_ZXQVHEib'
p261
sg120
(dp262
sg122
F0.39953155627927256
ssS'0.004015-0.006497'
p263
(dp264
S'a'
I1
sS'b'
I1
sg114
F0.002481586395723369
sg101
F0.5
sg110
F0.0040152911342997569
sg115
I0
sg116
F0.0064968775300231259
sg117
I01
sg107
I0
sg118
S'scorable_thing_hpHqhBWG'
p265
sg120
(dp266
sg122
F0.0052560843321614419
ssS'0.072051-0.116582'
p267
(dp268
S'a'
I1
sS'b'
I1
sg114
F0.044530261053014913
sg101
F0.5
sg110
F0.072051475911683815
sg115
I0
sg116
F0.11658173696469873
sg117
I01
sg107
I0
sg118
S'scorable_thing_wdGWJbEG'
p269
sg120
(dp270
sg122
F0.094316606438191272
ssS'0.493848-0.999414'
p271
(dp272
S'a'
I1
sS'b'
I1
sg114
F0.50556601420110669
sg101
F0.5
sg110
F0.49384816271746385
sg115
I0
sg116
F0.9994141769185706
sg117
I01
sg107
I0
sg118
S'scorable_thing_gQhuQXrY'
p273
sg120
(dp274
sg122
F0.74663116981801725
ssS'0.010512-0.017009'
p275
(dp276
S'a'
I1
sS'b'
I1
sg114
F0.0064968775300231277
sg101
F0.5
sg110
F0.010512168664322884
sg115
I0
sg116
F0.017009046194346011
sg117
I01
sg107
I0
sg118
S'scorable_thing_InkajBBX'
p277
sg120
(dp278
sg122
F0.013760607429334448
ssS'0.044530-0.072051'
p279
(dp280
S'a'
I1
sS'b'
I1
sg114
F0.027521214858668902
sg101
F0.5
sg110
F0.044530261053014913
sg115
I0
sg116
F0.072051475911683815
sg117
I01
sg107
I0
sg118
S'scorable_thing_OImlYWab'
p281
sg120
(dp282
sg122
F0.058290868482349364
sssg96
Nsg199
F9.9999999999999995e-07
sg200
(dp283
sg116
F0.9994141769185706
sg202
S'C:\\diagnose_vulnerabilities\\FOE2\\notepad\\results\\notepad_pp\\seedfiles\\d32dfc6844d1243eacc5e05de6877078\\rangefinder.log'
p284
ssg118
g218
sg204
S'C:\\diagnose_vulnerabilities\\FOE2\\notepad\\working_dir\\campaign_xiqetq\\seedfiles\\sf_d32dfc6844d1243eacc5e05de6877078.txt'
p285
sg206
I13656
sg120
(dp286
sg208
I00
sg209
S'C:\\diagnose_vulnerabilities\\FOE2\\notepad\\working_dir\\campaign_xiqetq\\seedfiles'
p287
sg211
g218
sS'a'
I1
sS'b'
I1
sg115
I0
sg117
I01
sg212
S'.txt'
p288
sg214
S'C:\\diagnose_vulnerabilities\\FOE2\\notepad\\results\\notepad_pp\\seedfiles\\d32dfc6844d1243eacc5e05de6877078'
p289
sg216
S'sf_d32dfc6844d1243eacc5e05de6877078'
p290
sssS'campaign_id'
p291
g15
sS'localpath'
p292
S'C:\\diagnose_vulnerabilities\\FOE2\\notepad\\working_dir\\campaign_xiqetq\\seedfiles'
p293
sS'outputpath'
p294
g95
sS'sfdel'
p295
I0
sg200
(dp296
S'677271d56999ae96a9fe55fdf4a2a202'
p297
F0.5
sS'd32dfc6844d1243eacc5e05de6877078'
p298
F0.5
sssS'config_file'
p299
S'configs/foe.yaml'
p300
sS'_version'
p301
S'2.7'
p302
sS'seed_dir_in'
p303
g50
sS'cached_state_file'
p304
S'C:\\diagnose_vulnerabilities\\FOE2\\notepad\\working_dir\\campaign_notepad_pp.pkl'
p305
sS'gui_app'
p306
I01
sS'keep_duplicates'
p307
I01
sS'debug'
p308
NsS'sf_set_out'
p309
g95
sb.