ccopy_reg
_reconstructor
p1
(ccertfuzz.campaign.campaign
WindowsCampaign
p2
c__builtin__
object
p3
NtRp4
(dp5
S'seed_interval'
p6
I1
sS'fuzzer_module_name'
p7
S'certfuzz.fuzzers.bytemut'
p8
sS'status_interval'
p9
I100
sS'cmd_template'
p10
S'"C:\\windows\\system32\\notepad.exe" "$SEEDFILE"'
p11
sS'seed_dir_local'
p12
S'C:\\diagnose_vulnerabilities\\FOE2\\notepad\\working_dir\\campaign_t4sn63\\seedfiles'
p13
sS'id'
p14
S'notepad'
p15
sS'runner_module_name'
p16
NsS'current_seed'
p17
I0
sS'outdir_base'
p18
S'C:\\diagnose_vulnerabilities\\FOE2\\notepad\\results'
p19
sS'working_dir'
p20
S'C:\\diagnose_vulnerabilities\\FOE2\\notepad\\working_dir\\campaign_t4sn63'
p21
sS'configdate'
p22
F1473200089.6180255
sS'prog'
p23
S'C:\\windows\\system32\\notepad.exe'
p24
sS'config'
p25
(dp26
S'fuzzer'
p27
(dp28
S'fuzzer'
p29
S'bytemut'
p30
sS'fuzz_zip_container'
p31
I00
ssS'target'
p32
(dp33
S'program'
p34
g24
sS'cmdline_template'
p35
g11
ssS'campaign'
p36
(dp37
S'keep_heisenbugs'
p38
I00
sS'use_buttonclicker'
p39
I00
sS'id'
p40
g15
ssS'runner'
p41
(dp42
S'runner'
p43
S'winrun'
p44
sS'exceptions'
p45
(lp46
L2147483650L
aL3221225477L
aL3221225501L
aL3221225509L
aL3221225510L
aL3221225612L
aL3221225614L
aL3221225616L
aL3221225617L
aL3221225618L
aL3221225619L
aL3221225620L
aL3221225621L
aL3221225622L
aL3221225725L
asS'runtimeout'
p47
I5
sS'hideoutput'
p48
I00
sS'watchcpu'
p49
I01
ssS'directories'
p50
(dp51
S'working_dir'
p52
S'C:\\diagnose_vulnerabilities\\FOE2\\notepad\\working_dir'
p53
sS'seedfile_dir'
p54
S'C:\\diagnose_vulnerabilities\\FOE2\\notepad\\seedfiles'
p55
sS'results_dir'
p56
S'C:\\diagnose_vulnerabilities\\FOE2\\notepad\\results'
p57
ssS'runoptions'
p58
(dp59
S'last_iteration'
p60
I0
sS'minimizer_timeout'
p61
I3600
sS'seed_interval'
p62
I1
sS'minimize'
p63
I01
sS'first_iteration'
p64
I0
sS'recycle_crashers'
p65
I00
sS'keep_unique_faddr'
p66
I00
sS'keep_all_duplicates'
p67
I00
ssS'debugger'
p68
(dp69
S'max_handled_exceptions'
p70
I6
sS'watchcpu'
p71
I01
sS'debugheap'
p72
I00
sS'runtimeout'
p73
I10
sS'debugger'
p74
S'msec'
p75
sssS'work_dir_base'
p76
S'C:\\diagnose_vulnerabilities\\FOE2\\notepad\\working_dir'
p77
sS'stop_seed'
p78
I0
sS'debugger_module_name'
p79
S'certfuzz.debuggers.msec'
p80
sS'keep_heisenbugs'
p81
I00
sS'crashes_seen'
p82
(lp83
sS'outdir'
p84
S'C:\\diagnose_vulnerabilities\\FOE2\\notepad\\results\\notepad'
p85
sS'use_buttonclicker'
p86
I00
sS'should_keep_u_faddr'
p87
I00
sS'seedfile_set'
p88
(dp89
S'originpath'
p90
g55
sS'datafile'
p91
S'C:\\diagnose_vulnerabilities\\FOE2\\notepad\\results\\notepad\\seedfiles\\seedfile_set_data.csv'
p92
sS'seedfile_output_base_dir'
p93
S'C:\\diagnose_vulnerabilities\\FOE2\\notepad\\results\\notepad\\seedfiles'
p94
sS'expected_crash_density'
p95
F0.5
sS'things'
p96
(dp97
S'677271d56999ae96a9fe55fdf4a2a202'
p98
(dp99
S'probability'
p100
F0.5
sS'range_min'
p101
F7.6103500761035014e-05
sS'range_max'
p102
F0.99992389649923896
sS'basename'
p103
S'sf_677271d56999ae96a9fe55fdf4a2a202.txt'
p104
sS'len'
p105
I13140
sS'tries'
p106
I0
sS'rangefinder'
p107
(dp108
g91
NsS'min'
p109
F7.6103500761035014e-05
sg96
(dp110
S'0.000322-0.000522'
p111
(dp112
S'a'
I1
sS'b'
I1
sS'span'
p113
F0.0001992415516552432
sg100
F0.5
sg109
F0.00032237960254945139
sS'successes'
p114
I0
sS'max'
p115
F0.00052162115420469459
sS'uniques_only'
p116
I01
sg106
I0
sS'key'
p117
S'scorable_thing_xCfbSJnT'
p118
sS'seen'
p119
(dp120
sS'mean'
p121
F0.00042200037837707301
ssS'0.000076-0.000123'
p122
(dp123
S'a'
I1
sS'b'
I1
sg113
F4.7034550133173144e-05
sg100
F0.5
sg109
F7.6103500761035014e-05
sg114
I0
sg115
F0.00012313805089420816
sg116
I01
sg106
I0
sg117
S'scorable_thing_NEDYhzVU'
p124
sg119
(dp125
sg121
F9.9620775827621586e-05
ssS'0.000123-0.000199'
p126
(dp127
S'a'
I1
sS'b'
I1
sg113
F7.6103500761035041e-05
sg100
F0.5
sg109
F0.00012313805089420816
sg114
I0
sg115
F0.0001992415516552432
sg116
I01
sg106
I0
sg117
S'scorable_thing_KgUalcnX'
p128
sg119
(dp129
sg121
F0.00016118980127472567
ssS'0.001366-0.002210'
p130
(dp131
S'a'
I1
sS'b'
I1
sg113
F0.00084400075675414624
sg100
F0.5
sg109
F0.0013656219109588407
sg114
I0
sg115
F0.002209622667712987
sg116
I01
sg106
I0
sg117
S'scorable_thing_gGwilCXd'
p132
sg119
(dp133
sg121
F0.0017876222893359137
ssS'0.002210-0.003575'
p134
(dp135
S'a'
I1
sS'b'
I1
sg113
F0.0013656219109588409
sg100
F0.5
sg109
F0.002209622667712987
sg114
I0
sg115
F0.0035752445786718279
sg116
I01
sg106
I0
sg117
S'scorable_thing_meTDGoyX'
p136
sg119
(dp137
sg121
F0.0028924336231924072
ssS'0.000199-0.000322'
p138
(dp139
S'a'
I1
sS'b'
I1
sg113
F0.00012313805089420819
sg100
F0.5
sg109
F0.0001992415516552432
sg114
I0
sg115
F0.00032237960254945139
sg116
I01
sg106
I0
sg117
S'scorable_thing_IgYQXDcJ'
p140
sg119
(dp141
sg121
F0.00026081057710234729
ssS'0.271766-0.439726'
p142
(dp143
S'a'
I1
sS'b'
I1
sg113
F0.16796039169681493
sg100
F0.5
sg109
F0.27176562252919217
sg114
I0
sg115
F0.4397260142260071
sg116
I01
sg106
I0
sg117
S'scorable_thing_xYrWzHbG'
p144
sg119
(dp145
sg121
F0.35574581837759967
ssS'0.005785-0.009360'
p146
(dp147
S'a'
I1
sS'b'
I1
sg113
F0.0035752445786718283
sg100
F0.5
sg109
F0.0057848672463848153
sg114
I0
sg115
F0.0093601118250566436
sg116
I01
sg106
I0
sg117
S'scorable_thing_omYeXyZs'
p148
sg119
(dp149
sg121
F0.0075724895357207299
ssS'0.064155-0.103805'
p150
(dp151
S'a'
I1
sS'b'
I1
sg113
F0.039650069967939572
sg100
F0.5
sg109
F0.064155160864437677
sg114
I0
sg115
F0.10380523083237725
sg116
I01
sg106
I0
sg117
S'scorable_thing_gbKGooGY'
p152
sg119
(dp153
sg121
F0.083980195848407463
ssS'0.103805-0.167960'
p154
(dp155
S'a'
I1
sS'b'
I1
sg113
F0.064155160864437677
sg100
F0.5
sg109
F0.10380523083237725
sg114
I0
sg115
F0.16796039169681493
sg116
I01
sg106
I0
sg117
S'scorable_thing_YbmeUkGh'
p156
sg119
(dp157
sg121
F0.13588281126459609
ssS'0.000522-0.000844'
p158
(dp159
S'a'
I1
sS'b'
I1
sg113
F0.00032237960254945144
sg100
F0.5
sg109
F0.00052162115420469459
sg114
I0
sg115
F0.00084400075675414602
sg116
I01
sg106
I0
sg117
S'scorable_thing_MuAzbjeG'
p160
sg119
(dp161
sg121
F0.00068281095547942025
ssS'0.039650-0.064155'
p162
(dp163
S'a'
I1
sS'b'
I1
sg113
F0.024505090896498112
sg100
F0.5
sg109
F0.039650069967939565
sg114
I0
sg115
F0.064155160864437677
sg116
I01
sg106
I0
sg117
S'scorable_thing_nZiMBoNw'
p164
sg119
(dp165
sg121
F0.051902615416188624
ssS'0.009360-0.015145'
p166
(dp167
S'a'
I1
sS'b'
I1
sg113
F0.0057848672463848162
sg100
F0.5
sg109
F0.0093601118250566436
sg114
I0
sg115
F0.01514497907144146
sg116
I01
sg106
I0
sg117
S'scorable_thing_XgCRduMg'
p168
sg119
(dp169
sg121
F0.012252545448249053
ssS'0.711492-0.999924'
p170
(dp171
S'a'
I1
sS'b'
I1
sg113
F0.28843225974403963
sg100
F0.5
sg109
F0.71149163675519933
sg114
I0
sg115
F0.99992389649923896
sg116
I01
sg106
I0
sg117
S'scorable_thing_BatZimEp'
p172
sg119
(dp173
sg121
F0.85570776662721915
ssS'0.000844-0.001366'
p174
(dp175
S'a'
I1
sS'b'
I1
sg113
F0.00052162115420469469
sg100
F0.5
sg109
F0.00084400075675414602
sg114
I0
sg115
F0.0013656219109588407
sg116
I01
sg106
I0
sg117
S'scorable_thing_FPJafPDD'
p176
sg119
(dp177
sg121
F0.0011048113338564935
ssS'0.003575-0.005785'
p178
(dp179
S'a'
I1
sS'b'
I1
sg113
F0.0022096226677129874
sg100
F0.5
sg109
F0.0035752445786718279
sg114
I0
sg115
F0.0057848672463848153
sg116
I01
sg106
I0
sg117
S'scorable_thing_vhgEVkdq'
p180
sg119
(dp181
sg121
F0.0046800559125283218
ssS'0.024505-0.039650'
p182
(dp183
S'a'
I1
sS'b'
I1
sg113
F0.01514497907144146
sg100
F0.5
sg109
F0.024505090896498105
sg114
I0
sg115
F0.039650069967939565
sg116
I01
sg106
I0
sg117
S'scorable_thing_wCmwdiQD'
p184
sg119
(dp185
sg121
F0.032077580432218838
ssS'0.167960-0.271766'
p186
(dp187
S'a'
I1
sS'b'
I1
sg113
F0.10380523083237725
sg100
F0.5
sg109
F0.16796039169681493
sg114
I0
sg115
F0.27176562252919217
sg116
I01
sg106
I0
sg117
S'scorable_thing_DDZRYRbg'
p188
sg119
(dp189
sg121
F0.21986300711300355
ssS'0.015145-0.024505'
p190
(dp191
S'a'
I1
sS'b'
I1
sg113
F0.0093601118250566454
sg100
F0.5
sg109
F0.01514497907144146
sg114
I0
sg115
F0.024505090896498105
sg116
I01
sg106
I0
sg117
S'scorable_thing_GmwVCjzT'
p192
sg119
(dp193
sg121
F0.019825034983969782
ssS'0.439726-0.711492'
p194
(dp195
S'a'
I1
sS'b'
I1
sg113
F0.27176562252919223
sg100
F0.5
sg109
F0.4397260142260071
sg114
I0
sg115
F0.71149163675519933
sg116
I01
sg106
I0
sg117
S'scorable_thing_FHFLnnkP'
p196
sg119
(dp197
sg121
F0.57560882549060322
sssg95
NsS'abs_min'
p198
F9.9999999999999995e-07
sS'scaled_score'
p199
(dp200
sg115
F0.99992389649923896
sS'logfile'
p201
S'C:\\diagnose_vulnerabilities\\FOE2\\notepad\\results\\notepad\\seedfiles\\677271d56999ae96a9fe55fdf4a2a202\\rangefinder.log'
p202
ssg117
g98
sS'path'
p203
S'C:\\diagnose_vulnerabilities\\FOE2\\notepad\\working_dir\\campaign_t4sn63\\seedfiles\\sf_677271d56999ae96a9fe55fdf4a2a202.txt'
p204
sS'bitlen'
p205
I105120
sg119
(dp206
sS'is_zip'
p207
I00
sS'dirname'
p208
S'C:\\diagnose_vulnerabilities\\FOE2\\notepad\\working_dir\\campaign_t4sn63\\seedfiles'
p209
sS'md5'
p210
g98
sS'a'
I1
sS'b'
I1
sg114
I0
sg116
I01
sS'ext'
p211
S'.txt'
p212
sS'output_dir'
p213
S'C:\\diagnose_vulnerabilities\\FOE2\\notepad\\results\\notepad\\seedfiles\\677271d56999ae96a9fe55fdf4a2a202'
p214
sS'root'
p215
S'sf_677271d56999ae96a9fe55fdf4a2a202'
p216
ssS'd32dfc6844d1243eacc5e05de6877078'
p217
(dp218
g100
F0.5
sg101
F0.00058582308142940832
sg102
F0.9994141769185706
sg103
S'sf_d32dfc6844d1243eacc5e05de6877078.txt'
p219
sg105
I1707
sg106
I0
sg107
(dp220
g91
Nsg109
F0.00058582308142940832
sg96
(dp221
S'0.001534-0.002482'
p222
(dp223
S'a'
I1
sS'b'
I1
sg113
F0.00094788165714697987
sg100
F0.5
sg109
F0.0015337047385763883
sg114
I0
sg115
F0.0024815863957233682
sg116
I01
sg106
I0
sg117
S'scorable_thing_KcFJMlxN'
p224
sg119
(dp225
sg121
F0.002007645567149878
ssS'0.006497-0.010512'
p226
(dp227
S'a'
I1
sS'b'
I1
sg113
F0.0040152911342997578
sg100
F0.5
sg109
F0.0064968775300231259
sg114
I0
sg115
F0.010512168664322884
sg116
I01
sg106
I0
sg117
S'scorable_thing_ACsFOFhQ'
p228
sg119
(dp229
sg121
F0.0085045230971730057
ssS'0.188633-0.305215'
p230
(dp231
S'a'
I1
sS'b'
I1
sg113
F0.11658173696469873
sg100
F0.5
sg109
F0.18863321287638254
sg114
I0
sg115
F0.30521494984108127
sg116
I01
sg106
I0
sg117
S'scorable_thing_nhVOufuB'
p232
sg119
(dp233
sg121
F0.2469240813587319
ssS'0.017009-0.027521'
p234
(dp235
S'a'
I1
sS'b'
I1
sg113
F0.010512168664322887
sg100
F0.5
sg109
F0.017009046194346011
sg114
I0
sg115
F0.027521214858668899
sg116
I01
sg106
I0
sg117
S'scorable_thing_UQdMNNRu'
p236
sg119
(dp237
sg121
F0.022265130526507457
ssS'0.027521-0.044530'
p238
(dp239
S'a'
I1
sS'b'
I1
sg113
F0.017009046194346015
sg100
F0.5
sg109
F0.027521214858668899
sg114
I0
sg115
F0.044530261053014913
sg116
I01
sg106
I0
sg117
S'scorable_thing_FgGmeWrq'
p240
sg119
(dp241
sg121
F0.036025737955841908
ssS'0.000948-0.001534'
p242
(dp243
S'a'
I1
sS'b'
I1
sg113
F0.00058582308142940832
sg100
F0.5
sg109
F0.00094788165714697998
sg114
I0
sg115
F0.0015337047385763883
sg116
I01
sg106
I0
sg117
S'scorable_thing_iUeNtoOk'
p244
sg119
(dp245
sg121
F0.0012407931978616841
ssS'0.116582-0.188633'
p246
(dp247
S'a'
I1
sS'b'
I1
sg113
F0.072051475911683815
sg100
F0.5
sg109
F0.11658173696469873
sg114
I0
sg115
F0.18863321287638254
sg116
I01
sg106
I0
sg117
S'scorable_thing_mJOJziKb'
p248
sg119
(dp249
sg121
F0.15260747492054064
ssS'0.002482-0.004015'
p250
(dp251
S'a'
I1
sS'b'
I1
sg113
F0.0015337047385763887
sg100
F0.5
sg109
F0.0024815863957233682
sg114
I0
sg115
F0.0040152911342997569
sg116
I01
sg106
I0
sg117
S'scorable_thing_IXsgyGVp'
p252
sg119
(dp253
sg121
F0.0032484387650115625
ssS'0.000586-0.000948'
p254
(dp255
S'a'
I1
sS'b'
I1
sg113
F0.00036205857571757166
sg100
F0.5
sg109
F0.00058582308142940832
sg114
I0
sg115
F0.00094788165714697998
sg116
I01
sg106
I0
sg117
S'scorable_thing_miAWPgCh'
p256
sg119
(dp257
sg121
F0.00076685236928819415
ssS'0.305215-0.493848'
p258
(dp259
S'a'
I1
sS'b'
I1
sg113
F0.18863321287638257
sg100
F0.5
sg109
F0.30521494984108127
sg114
I0
sg115
F0.49384816271746385
sg116
I01
sg106
I0
sg117
S'scorable_thing_WrxLfcRs'
p260
sg119
(dp261
sg121
F0.39953155627927256
ssS'0.004015-0.006497'
p262
(dp263
S'a'
I1
sS'b'
I1
sg113
F0.002481586395723369
sg100
F0.5
sg109
F0.0040152911342997569
sg114
I0
sg115
F0.0064968775300231259
sg116
I01
sg106
I0
sg117
S'scorable_thing_sHdiFpVR'
p264
sg119
(dp265
sg121
F0.0052560843321614419
ssS'0.072051-0.116582'
p266
(dp267
S'a'
I1
sS'b'
I1
sg113
F0.044530261053014913
sg100
F0.5
sg109
F0.072051475911683815
sg114
I0
sg115
F0.11658173696469873
sg116
I01
sg106
I0
sg117
S'scorable_thing_UubuzOgS'
p268
sg119
(dp269
sg121
F0.094316606438191272
ssS'0.493848-0.999414'
p270
(dp271
S'a'
I1
sS'b'
I1
sg113
F0.50556601420110669
sg100
F0.5
sg109
F0.49384816271746385
sg114
I0
sg115
F0.9994141769185706
sg116
I01
sg106
I0
sg117
S'scorable_thing_HoxvagBa'
p272
sg119
(dp273
sg121
F0.74663116981801725
ssS'0.010512-0.017009'
p274
(dp275
S'a'
I1
sS'b'
I1
sg113
F0.0064968775300231277
sg100
F0.5
sg109
F0.010512168664322884
sg114
I0
sg115
F0.017009046194346011
sg116
I01
sg106
I0
sg117
S'scorable_thing_WsgASYSB'
p276
sg119
(dp277
sg121
F0.013760607429334448
ssS'0.044530-0.072051'
p278
(dp279
S'a'
I1
sS'b'
I1
sg113
F0.027521214858668902
sg100
F0.5
sg109
F0.044530261053014913
sg114
I0
sg115
F0.072051475911683815
sg116
I01
sg106
I0
sg117
S'scorable_thing_qmbJCKcm'
p280
sg119
(dp281
sg121
F0.058290868482349364
sssg95
Nsg198
F9.9999999999999995e-07
sg199
(dp282
sg115
F0.9994141769185706
sg201
S'C:\\diagnose_vulnerabilities\\FOE2\\notepad\\results\\notepad\\seedfiles\\d32dfc6844d1243eacc5e05de6877078\\rangefinder.log'
p283
ssg117
g217
sg203
S'C:\\diagnose_vulnerabilities\\FOE2\\notepad\\working_dir\\campaign_t4sn63\\seedfiles\\sf_d32dfc6844d1243eacc5e05de6877078.txt'
p284
sg205
I13656
sg119
(dp285
sg207
I00
sg208
S'C:\\diagnose_vulnerabilities\\FOE2\\notepad\\working_dir\\campaign_t4sn63\\seedfiles'
p286
sg210
g217
sS'a'
I1
sS'b'
I1
sg114
I0
sg116
I01
sg211
S'.txt'
p287
sg213
S'C:\\diagnose_vulnerabilities\\FOE2\\notepad\\results\\notepad\\seedfiles\\d32dfc6844d1243eacc5e05de6877078'
p288
sg215
S'sf_d32dfc6844d1243eacc5e05de6877078'
p289
sssS'campaign_id'
p290
g15
sS'localpath'
p291
g13
sS'outputpath'
p292
g94
sg199
(dp293
g98
F0.5
sg217
F0.5
sssS'config_file'
p294
S'configs/foe.yaml'
p295
sS'_version'
p296
S'2.7'
p297
sS'seed_dir_in'
p298
g55
sS'cached_state_file'
p299
S'C:\\diagnose_vulnerabilities\\FOE2\\notepad\\working_dir\\campaign_notepad.pkl'
p300
sS'gui_app'
p301
I01
sS'keep_duplicates'
p302
I00
sS'debug'
p303
I01
sS'sf_set_out'
p304
g94
sb.